; ModuleID = '41/450.c'
source_filename = "41/450.c"
target datalayout = "e-m:e-p270:32:32-p271:32:32-p272:64:64-i64:64-f80:128-n8:16:32:64-S128"
target triple = "x86_64-pc-linux-gnu"

@.str = private unnamed_addr constant [16 x i8] c"%d %d %d %d %d\0A\00", align 1

; Function Attrs: noinline nounwind uwtable
define dso_local void @main() #0 {
  %1 = alloca i32, align 4
  %2 = alloca i32, align 4
  %3 = alloca i32, align 4
  %4 = alloca i32, align 4
  %5 = alloca i32, align 4
  store i32 1, i32* %1, align 4
  br label %6

6:                                                ; preds = %120, %0
  %7 = load i32, i32* %1, align 4
  %8 = icmp sle i32 %7, 5
  br i1 %8, label %9, label %123

9:                                                ; preds = %6
  store i32 1, i32* %2, align 4
  br label %10

10:                                               ; preds = %116, %9
  %11 = load i32, i32* %2, align 4
  %12 = icmp sle i32 %11, 5
  br i1 %12, label %13, label %119

13:                                               ; preds = %10
  store i32 1, i32* %3, align 4
  br label %14

14:                                               ; preds = %112, %13
  %15 = load i32, i32* %3, align 4
  %16 = icmp sle i32 %15, 5
  br i1 %16, label %17, label %115

17:                                               ; preds = %14
  store i32 1, i32* %4, align 4
  br label %18

18:                                               ; preds = %108, %17
  %19 = load i32, i32* %4, align 4
  %20 = icmp sle i32 %19, 5
  br i1 %20, label %21, label %111

21:                                               ; preds = %18
  store i32 1, i32* %5, align 4
  br label %22

22:                                               ; preds = %104, %21
  %23 = load i32, i32* %5, align 4
  %24 = icmp sle i32 %23, 5
  br i1 %24, label %25, label %107

25:                                               ; preds = %22
  %26 = load i32, i32* %1, align 4
  %27 = load i32, i32* %2, align 4
  %28 = icmp eq i32 %26, %27
  br i1 %28, label %65, label %29

29:                                               ; preds = %25
  %30 = load i32, i32* %1, align 4
  %31 = load i32, i32* %3, align 4
  %32 = icmp eq i32 %30, %31
  br i1 %32, label %65, label %33

33:                                               ; preds = %29
  %34 = load i32, i32* %1, align 4
  %35 = load i32, i32* %4, align 4
  %36 = icmp eq i32 %34, %35
  br i1 %36, label %65, label %37

37:                                               ; preds = %33
  %38 = load i32, i32* %1, align 4
  %39 = load i32, i32* %5, align 4
  %40 = icmp eq i32 %38, %39
  br i1 %40, label %65, label %41

41:                                               ; preds = %37
  %42 = load i32, i32* %2, align 4
  %43 = load i32, i32* %3, align 4
  %44 = icmp eq i32 %42, %43
  br i1 %44, label %65, label %45

45:                                               ; preds = %41
  %46 = load i32, i32* %2, align 4
  %47 = load i32, i32* %4, align 4
  %48 = icmp eq i32 %46, %47
  br i1 %48, label %65, label %49

49:                                               ; preds = %45
  %50 = load i32, i32* %2, align 4
  %51 = load i32, i32* %5, align 4
  %52 = icmp eq i32 %50, %51
  br i1 %52, label %65, label %53

53:                                               ; preds = %49
  %54 = load i32, i32* %3, align 4
  %55 = load i32, i32* %4, align 4
  %56 = icmp eq i32 %54, %55
  br i1 %56, label %65, label %57

57:                                               ; preds = %53
  %58 = load i32, i32* %3, align 4
  %59 = load i32, i32* %5, align 4
  %60 = icmp eq i32 %58, %59
  br i1 %60, label %65, label %61

61:                                               ; preds = %57
  %62 = load i32, i32* %4, align 4
  %63 = load i32, i32* %5, align 4
  %64 = icmp eq i32 %62, %63
  br i1 %64, label %65, label %66

65:                                               ; preds = %61, %57, %53, %49, %45, %41, %37, %33, %29, %25
  br label %104

66:                                               ; preds = %61
  %67 = load i32, i32* %5, align 4
  %68 = icmp ne i32 %67, 1
  br i1 %68, label %69, label %103

69:                                               ; preds = %66
  %70 = load i32, i32* %4, align 4
  %71 = icmp ne i32 %70, 1
  br i1 %71, label %72, label %103

72:                                               ; preds = %69
  %73 = load i32, i32* %5, align 4
  %74 = icmp ne i32 %73, 2
  br i1 %74, label %75, label %103

75:                                               ; preds = %72
  %76 = load i32, i32* %5, align 4
  %77 = icmp ne i32 %76, 3
  br i1 %77, label %78, label %103

78:                                               ; preds = %75
  %79 = load i32, i32* %1, align 4
  %80 = icmp sgt i32 %79, 2
  br i1 %80, label %81, label %103

81:                                               ; preds = %78
  %82 = load i32, i32* %4, align 4
  %83 = icmp sgt i32 %82, 2
  br i1 %83, label %84, label %103

84:                                               ; preds = %81
  %85 = load i32, i32* %3, align 4
  %86 = icmp eq i32 %85, 1
  br i1 %86, label %87, label %103

87:                                               ; preds = %84
  %88 = load i32, i32* %5, align 4
  %89 = icmp ne i32 %88, 5
  br i1 %89, label %90, label %103

90:                                               ; preds = %87
  %91 = load i32, i32* %3, align 4
  %92 = icmp eq i32 %91, 1
  br i1 %92, label %93, label %103

93:                                               ; preds = %90
  %94 = load i32, i32* %1, align 4
  %95 = icmp eq i32 %94, 5
  br i1 %95, label %96, label %103

96:                                               ; preds = %93
  %97 = load i32, i32* %1, align 4
  %98 = load i32, i32* %2, align 4
  %99 = load i32, i32* %3, align 4
  %100 = load i32, i32* %4, align 4
  %101 = load i32, i32* %5, align 4
  %102 = call i32 (i8*, ...) @printf(i8* getelementptr inbounds ([16 x i8], [16 x i8]* @.str, i64 0, i64 0), i32 %97, i32 %98, i32 %99, i32 %100, i32 %101)
  br label %103

103:                                              ; preds = %96, %93, %90, %87, %84, %81, %78, %75, %72, %69, %66
  br label %104

104:                                              ; preds = %103, %65
  %105 = load i32, i32* %5, align 4
  %106 = add nsw i32 %105, 1
  store i32 %106, i32* %5, align 4
  br label %22

107:                                              ; preds = %22
  br label %108

108:                                              ; preds = %107
  %109 = load i32, i32* %4, align 4
  %110 = add nsw i32 %109, 1
  store i32 %110, i32* %4, align 4
  br label %18

111:                                              ; preds = %18
  br label %112

112:                                              ; preds = %111
  %113 = load i32, i32* %3, align 4
  %114 = add nsw i32 %113, 1
  store i32 %114, i32* %3, align 4
  br label %14

115:                                              ; preds = %14
  br label %116

116:                                              ; preds = %115
  %117 = load i32, i32* %2, align 4
  %118 = add nsw i32 %117, 1
  store i32 %118, i32* %2, align 4
  br label %10

119:                                              ; preds = %10
  br label %120

120:                                              ; preds = %119
  %121 = load i32, i32* %1, align 4
  %122 = add nsw i32 %121, 1
  store i32 %122, i32* %1, align 4
  br label %6

123:                                              ; preds = %6
  ret void
}

declare dso_local i32 @printf(i8*, ...) #1


!llvm.module.flags = !{!0}
!llvm.ident = !{!1}

!0 = !{i32 1, !"wchar_size", i32 4}
!1 = !{!"clang version 10.0.0-4ubuntu1 "}
